; ModuleID = '11/758.c'
source_filename = "11/758.c"
target datalayout = "e-m:e-p270:32:32-p271:32:32-p272:64:64-i64:64-f80:128-n8:16:32:64-S128"
target triple = "x86_64-pc-linux-gnu"

@.str = private unnamed_addr constant [9 x i8] c"%d %d %d\00", align 1
@.str.1 = private unnamed_addr constant [3 x i8] c"%d\00", align 1

; Function Attrs: noinline nounwind uwtable
define dso_local i32 @main() #0 {
  %1 = alloca i32, align 4
  %2 = alloca i32, align 4
  %3 = alloca i32, align 4
  %4 = alloca i32, align 4
  %5 = alloca i32, align 4
  %6 = alloca i32, align 4
  %7 = alloca [12 x i32], align 16
  store i32 0, i32* %1, align 4
  store i32 0, i32* %6, align 4
  %8 = getelementptr inbounds [12 x i32], [12 x i32]* %7, i64 0, i64 0
  store i32 31, i32* %8, align 16
  %9 = getelementptr inbounds [12 x i32], [12 x i32]* %7, i64 0, i64 1
  store i32 28, i32* %9, align 4
  %10 = getelementptr inbounds [12 x i32], [12 x i32]* %7, i64 0, i64 2
  store i32 31, i32* %10, align 8
  %11 = getelementptr inbounds [12 x i32], [12 x i32]* %7, i64 0, i64 3
  store i32 30, i32* %11, align 4
  %12 = getelementptr inbounds [12 x i32], [12 x i32]* %7, i64 0, i64 4
  store i32 31, i32* %12, align 16
  %13 = getelementptr inbounds [12 x i32], [12 x i32]* %7, i64 0, i64 5
  store i32 30, i32* %13, align 4
  %14 = getelementptr inbounds [12 x i32], [12 x i32]* %7, i64 0, i64 6
  store i32 31, i32* %14, align 8
  %15 = getelementptr inbounds [12 x i32], [12 x i32]* %7, i64 0, i64 7
  store i32 31, i32* %15, align 4
  %16 = getelementptr inbounds [12 x i32], [12 x i32]* %7, i64 0, i64 8
  store i32 30, i32* %16, align 16
  %17 = getelementptr inbounds [12 x i32], [12 x i32]* %7, i64 0, i64 9
  store i32 31, i32* %17, align 4
  %18 = getelementptr inbounds [12 x i32], [12 x i32]* %7, i64 0, i64 10
  store i32 30, i32* %18, align 8
  %19 = getelementptr inbounds [12 x i32], [12 x i32]* %7, i64 0, i64 11
  store i32 31, i32* %19, align 4
  %20 = call i32 (i8*, ...) @__isoc99_scanf(i8* getelementptr inbounds ([9 x i8], [9 x i8]* @.str, i64 0, i64 0), i32* %2, i32* %3, i32* %4)
  %21 = load i32, i32* %2, align 4
  %22 = srem i32 %21, 4
  %23 = icmp eq i32 %22, 0
  br i1 %23, label %24, label %30

24:                                               ; preds = %0
  %25 = load i32, i32* %2, align 4
  %26 = srem i32 %25, 100
  %27 = icmp ne i32 %26, 0
  br i1 %27, label %28, label %30

28:                                               ; preds = %24
  %29 = getelementptr inbounds [12 x i32], [12 x i32]* %7, i64 0, i64 1
  store i32 29, i32* %29, align 4
  br label %30

30:                                               ; preds = %28, %24, %0
  %31 = load i32, i32* %2, align 4
  %32 = srem i32 %31, 400
  %33 = icmp eq i32 %32, 0
  br i1 %33, label %34, label %36

34:                                               ; preds = %30
  %35 = getelementptr inbounds [12 x i32], [12 x i32]* %7, i64 0, i64 1
  store i32 29, i32* %35, align 4
  br label %36

36:                                               ; preds = %34, %30
  store i32 0, i32* %5, align 4
  br label %37

37:                                               ; preds = %49, %36
  %38 = load i32, i32* %5, align 4
  %39 = load i32, i32* %3, align 4
  %40 = sub nsw i32 %39, 1
  %41 = icmp slt i32 %38, %40
  br i1 %41, label %42, label %52

42:                                               ; preds = %37
  %43 = load i32, i32* %5, align 4
  %44 = sext i32 %43 to i64
  %45 = getelementptr inbounds [12 x i32], [12 x i32]* %7, i64 0, i64 %44
  %46 = load i32, i32* %45, align 4
  %47 = load i32, i32* %6, align 4
  %48 = add nsw i32 %47, %46
  store i32 %48, i32* %6, align 4
  br label %49

49:                                               ; preds = %42
  %50 = load i32, i32* %5, align 4
  %51 = add nsw i32 %50, 1
  store i32 %51, i32* %5, align 4
  br label %37

52:                                               ; preds = %37
  %53 = load i32, i32* %6, align 4
  %54 = load i32, i32* %4, align 4
  %55 = add nsw i32 %53, %54
  store i32 %55, i32* %6, align 4
  %56 = load i32, i32* %6, align 4
  %57 = call i32 (i8*, ...) @printf(i8* getelementptr inbounds ([3 x i8], [3 x i8]* @.str.1, i64 0, i64 0), i32 %56)
  %58 = load i32, i32* %1, align 4
  ret i32 %58
}

declare dso_local i32 @__isoc99_scanf(i8*, ...) #1

declare dso_local i32 @printf(i8*, ...) #1


!llvm.module.flags = !{!0}
!llvm.ident = !{!1}

!0 = !{i32 1, !"wchar_size", i32 4}
!1 = !{!"clang version 10.0.0-4ubuntu1 "}
